GAS LISTING /tmp//cc5ihGWi.s 			page 1


   1               		.file	"lesson1.c"
   2               	__SREG__ = 0x3f
   3               	__SP_H__ = 0x3e
   4               	__SP_L__ = 0x3d
   5               	__CCP__  = 0x34
   6               	__tmp_reg__ = 0
   7               	__zero_reg__ = 1
   8               		.stabs	"/home/dbolgheroni/bolgh/avr/",100,0,2,.Ltext0
   9               		.stabs	"lesson1.c",100,0,2,.Ltext0
  10               		.text
  11               	.Ltext0:
  12               		.stabs	"gcc2_compiled.",60,0,0,0
  13               		.stabs	"int:t(0,1)=r(0,1);-32768;32767;",128,0,1,0
  14               		.stabs	"char:t(0,2)=r(0,2);0;127;",128,0,1,0
  15               		.stabs	"long int:t(0,3)=@s32;r(0,3);020000000000;017777777777;",128,0,1,0
  16               		.stabs	"unsigned int:t(0,4)=r(0,4);0;0177777;",128,0,1,0
  17               		.stabs	"long unsigned int:t(0,5)=@s32;r(0,5);0;037777777777;",128,0,1,0
  18               		.stabs	"long long int:t(0,6)=@s64;r(0,6);01000000000000000000000;0777777777777777777777;",128,0,1,
  19               		.stabs	"long long unsigned int:t(0,7)=@s64;r(0,7);0;01777777777777777777777;",128,0,1,0
  20               		.stabs	"short int:t(0,8)=r(0,8);-32768;32767;",128,0,1,0
  21               		.stabs	"short unsigned int:t(0,9)=r(0,9);0;0177777;",128,0,1,0
  22               		.stabs	"signed char:t(0,10)=@s8;r(0,10);-128;127;",128,0,1,0
  23               		.stabs	"unsigned char:t(0,11)=@s8;r(0,11);0;255;",128,0,1,0
  24               		.stabs	"float:t(0,12)=r(0,1);4;0;",128,0,1,0
  25               		.stabs	"double:t(0,13)=r(0,1);4;0;",128,0,1,0
  26               		.stabs	"long double:t(0,14)=r(0,1);4;0;",128,0,1,0
  27               		.stabs	"void:t(0,15)=(0,15)",128,0,1,0
  28               		.stabs	"/usr/local/lib/gcc/avr/4.3.4/../../../../avr/include/avr/io.h",130,0,0,0
  29               		.stabs	"/usr/local/lib/gcc/avr/4.3.4/../../../../avr/include/avr/sfr_defs.h",130,0,0,0
  30               		.stabs	"/usr/local/lib/gcc/avr/4.3.4/../../../../avr/include/inttypes.h",130,0,0,0
  31               		.stabs	"/usr/local/lib/gcc/avr/4.3.4/../../../../avr/include/stdint.h",130,0,0,0
  32               		.stabs	"int8_t:t(4,1)=(0,10)",128,0,121,0
  33               		.stabs	"uint8_t:t(4,2)=(0,11)",128,0,122,0
  34               		.stabs	"int16_t:t(4,3)=(0,1)",128,0,123,0
  35               		.stabs	"uint16_t:t(4,4)=(0,4)",128,0,124,0
  36               		.stabs	"int32_t:t(4,5)=(0,3)",128,0,125,0
  37               		.stabs	"uint32_t:t(4,6)=(0,5)",128,0,126,0
  38               		.stabs	"int64_t:t(4,7)=(0,6)",128,0,128,0
  39               		.stabs	"uint64_t:t(4,8)=(0,7)",128,0,129,0
  40               		.stabs	"intptr_t:t(4,9)=(4,3)",128,0,142,0
  41               		.stabs	"uintptr_t:t(4,10)=(4,4)",128,0,147,0
  42               		.stabs	"int_least8_t:t(4,11)=(4,1)",128,0,159,0
  43               		.stabs	"uint_least8_t:t(4,12)=(4,2)",128,0,164,0
  44               		.stabs	"int_least16_t:t(4,13)=(4,3)",128,0,169,0
  45               		.stabs	"uint_least16_t:t(4,14)=(4,4)",128,0,174,0
  46               		.stabs	"int_least32_t:t(4,15)=(4,5)",128,0,179,0
  47               		.stabs	"uint_least32_t:t(4,16)=(4,6)",128,0,184,0
  48               		.stabs	"int_least64_t:t(4,17)=(4,7)",128,0,192,0
  49               		.stabs	"uint_least64_t:t(4,18)=(4,8)",128,0,199,0
  50               		.stabs	"int_fast8_t:t(4,19)=(4,1)",128,0,213,0
  51               		.stabs	"uint_fast8_t:t(4,20)=(4,2)",128,0,218,0
  52               		.stabs	"int_fast16_t:t(4,21)=(4,3)",128,0,223,0
  53               		.stabs	"uint_fast16_t:t(4,22)=(4,4)",128,0,228,0
  54               		.stabs	"int_fast32_t:t(4,23)=(4,5)",128,0,233,0
  55               		.stabs	"uint_fast32_t:t(4,24)=(4,6)",128,0,238,0
  56               		.stabs	"int_fast64_t:t(4,25)=(4,7)",128,0,246,0
  57               		.stabs	"uint_fast64_t:t(4,26)=(4,8)",128,0,253,0
GAS LISTING /tmp//cc5ihGWi.s 			page 2


  58               		.stabs	"intmax_t:t(4,27)=(4,7)",128,0,273,0
  59               		.stabs	"uintmax_t:t(4,28)=(4,8)",128,0,278,0
  60               		.stabn	162,0,0,0
  61               		.stabs	"int_farptr_t:t(3,1)=(4,5)",128,0,77,0
  62               		.stabs	"uint_farptr_t:t(3,2)=(4,6)",128,0,81,0
  63               		.stabn	162,0,0,0
  64               		.stabn	162,0,0,0
  65               		.stabs	"/usr/local/lib/gcc/avr/4.3.4/../../../../avr/include/avr/fuse.h",130,0,0,0
  66               		.stabs	"__fuse_t:t(5,1)=(5,2)=s3low:(0,11),0,8;high:(0,11),8,8;extended:(0,11),16,8;;",128,0,244,0
  67               		.stabn	162,0,0,0
  68               		.stabn	162,0,0,0
  69               		.stabs	"main:F(0,1)",36,0,28,main
  70               	.global	main
  71               		.type	main, @function
  72               	main:
  73               		.stabd	46,0,0
   0:lesson1.c     **** /* $CSK: lesson1.c,v 1.3 2009/05/17 06:22:44 ckuethe Exp $ */
   1:lesson1.c     **** /*
   2:lesson1.c     ****  * Copyright (c) 2008 Chris Kuethe <chris.kuethe@gmail.com>
   3:lesson1.c     ****  *
   4:lesson1.c     ****  * Permission to use, copy, modify, and distribute this software for any
   5:lesson1.c     ****  * purpose with or without fee is hereby granted, provided that the above
   6:lesson1.c     ****  * copyright notice and this permission notice appear in all copies.
   7:lesson1.c     ****  *
   8:lesson1.c     ****  * THE SOFTWARE IS PROVIDED "AS IS" AND THE AUTHOR DISCLAIMS ALL WARRANTIES
   9:lesson1.c     ****  * WITH REGARD TO THIS SOFTWARE INCLUDING ALL IMPLIED WARRANTIES OF
  10:lesson1.c     ****  * MERCHANTABILITY AND FITNESS. IN NO EVENT SHALL THE AUTHOR BE LIABLE FOR
  11:lesson1.c     ****  * ANY SPECIAL, DIRECT, INDIRECT, OR CONSEQUENTIAL DAMAGES OR ANY DAMAGES
  12:lesson1.c     ****  * WHATSOEVER RESULTING FROM LOSS OF USE, DATA OR PROFITS, WHETHER IN AN
  13:lesson1.c     ****  * ACTION OF CONTRACT, NEGLIGENCE OR OTHER TORTIOUS ACTION, ARISING OUT OF
  14:lesson1.c     ****  * OR IN CONNECTION WITH THE USE OR PERFORMANCE OF THIS SOFTWARE.
  15:lesson1.c     ****  */
  16:lesson1.c     **** 
  17:lesson1.c     **** #include <avr/io.h>
  18:lesson1.c     **** #include <util/delay.h>
  19:lesson1.c     **** 
  20:lesson1.c     **** /*
  21:lesson1.c     ****  * Assumptions:
  22:lesson1.c     ****  * 	- LED connected to PORTB
  23:lesson1.c     ****  * 	- F_CPU is defined to be your cpu speed (preprocessor define)
  24:lesson1.c     ****  */
  25:lesson1.c     **** 
  26:lesson1.c     **** int main (void)
  27:lesson1.c     **** {
  74               		.stabn	68,0,28,.LM0-.LFBB1
  75               	.LM0:
  76               	.LFBB1:
  77 0000 DF93      		push r29
  78 0002 CF93      		push r28
  79 0004 CDB7      		in r28,__SP_L__
  80 0006 DEB7      		in r29,__SP_H__
  81 0008 6C97      		sbiw r28,28
  82 000a 0FB6      		in __tmp_reg__,__SREG__
  83 000c F894      		cli
  84 000e DEBF      		out __SP_H__,r29
  85 0010 0FBE      		out __SREG__,__tmp_reg__
  86 0012 CDBF      		out __SP_L__,r28
GAS LISTING /tmp//cc5ihGWi.s 			page 3


  87               	/* prologue: function */
  88               	/* frame size = 28 */
  28:lesson1.c     **** 	/* set PORTB for output*/
  29:lesson1.c     **** 	DDRB = 0xFF;
  89               		.stabn	68,0,30,.LM1-.LFBB1
  90               	.LM1:
  91 0014 E4E2      		ldi r30,lo8(36)
  92 0016 F0E0      		ldi r31,hi8(36)
  93 0018 8FEF      		ldi r24,lo8(-1)
  94 001a 8083      		st Z,r24
  95               	.L18:
  30:lesson1.c     **** 
  31:lesson1.c     **** 	while (1) {
  32:lesson1.c     **** 		/* set PORTB high */
  33:lesson1.c     **** 		PORTB = 0xFF;
  96               		.stabn	68,0,34,.LM2-.LFBB1
  97               	.LM2:
  98 001c E5E2      		ldi r30,lo8(37)
  99 001e F0E0      		ldi r31,hi8(37)
 100 0020 8FEF      		ldi r24,lo8(-1)
 101 0022 8083      		st Z,r24
 102 0024 80E0      		ldi r24,lo8(0x43fa0000)
 103 0026 90E0      		ldi r25,hi8(0x43fa0000)
 104 0028 AAEF      		ldi r26,hlo8(0x43fa0000)
 105 002a B3E4      		ldi r27,hhi8(0x43fa0000)
 106 002c 898F      		std Y+25,r24
 107 002e 9A8F      		std Y+26,r25
 108 0030 AB8F      		std Y+27,r26
 109 0032 BC8F      		std Y+28,r27
 110               	.LBB14:
 111               	.LBB15:
 112               		.stabs	"/usr/local/lib/gcc/avr/4.3.4/../../../../avr/include/util/delay.h",132,0,0,.Ltext1
 113               	.Ltext1:
   0:/usr/local/lib/gcc/avr/4.3.4/../../../../avr/include/util/delay.h **** /* Copyright (c) 2002, Marek Michalkiewicz
   1:/usr/local/lib/gcc/avr/4.3.4/../../../../avr/include/util/delay.h ****    Copyright (c) 2004,2005,2007 Joerg Wunsch
   2:/usr/local/lib/gcc/avr/4.3.4/../../../../avr/include/util/delay.h ****    Copyright (c) 2007  Florin-Viorel Petrov
   3:/usr/local/lib/gcc/avr/4.3.4/../../../../avr/include/util/delay.h ****    All rights reserved.
   4:/usr/local/lib/gcc/avr/4.3.4/../../../../avr/include/util/delay.h **** 
   5:/usr/local/lib/gcc/avr/4.3.4/../../../../avr/include/util/delay.h ****    Redistribution and use in source and binary forms, with or without
   6:/usr/local/lib/gcc/avr/4.3.4/../../../../avr/include/util/delay.h ****    modification, are permitted provided that the following conditions are met:
   7:/usr/local/lib/gcc/avr/4.3.4/../../../../avr/include/util/delay.h **** 
   8:/usr/local/lib/gcc/avr/4.3.4/../../../../avr/include/util/delay.h ****    * Redistributions of source code must retain the above copyright
   9:/usr/local/lib/gcc/avr/4.3.4/../../../../avr/include/util/delay.h ****      notice, this list of conditions and the following disclaimer.
  10:/usr/local/lib/gcc/avr/4.3.4/../../../../avr/include/util/delay.h **** 
  11:/usr/local/lib/gcc/avr/4.3.4/../../../../avr/include/util/delay.h ****    * Redistributions in binary form must reproduce the above copyright
  12:/usr/local/lib/gcc/avr/4.3.4/../../../../avr/include/util/delay.h ****      notice, this list of conditions and the following disclaimer in
  13:/usr/local/lib/gcc/avr/4.3.4/../../../../avr/include/util/delay.h ****      the documentation and/or other materials provided with the
  14:/usr/local/lib/gcc/avr/4.3.4/../../../../avr/include/util/delay.h ****      distribution.
  15:/usr/local/lib/gcc/avr/4.3.4/../../../../avr/include/util/delay.h **** 
  16:/usr/local/lib/gcc/avr/4.3.4/../../../../avr/include/util/delay.h ****    * Neither the name of the copyright holders nor the names of
  17:/usr/local/lib/gcc/avr/4.3.4/../../../../avr/include/util/delay.h ****      contributors may be used to endorse or promote products derived
  18:/usr/local/lib/gcc/avr/4.3.4/../../../../avr/include/util/delay.h ****      from this software without specific prior written permission.
  19:/usr/local/lib/gcc/avr/4.3.4/../../../../avr/include/util/delay.h **** 
  20:/usr/local/lib/gcc/avr/4.3.4/../../../../avr/include/util/delay.h ****   THIS SOFTWARE IS PROVIDED BY THE COPYRIGHT HOLDERS AND CONTRIBUTORS "AS IS"
  21:/usr/local/lib/gcc/avr/4.3.4/../../../../avr/include/util/delay.h ****   AND ANY EXPRESS OR IMPLIED WARRANTIES, INCLUDING, BUT NOT LIMITED TO, THE
  22:/usr/local/lib/gcc/avr/4.3.4/../../../../avr/include/util/delay.h ****   IMPLIED WARRANTIES OF MERCHANTABILITY AND FITNESS FOR A PARTICULAR PURPOSE
  23:/usr/local/lib/gcc/avr/4.3.4/../../../../avr/include/util/delay.h ****   ARE DISCLAIMED. IN NO EVENT SHALL THE COPYRIGHT OWNER OR CONTRIBUTORS BE
GAS LISTING /tmp//cc5ihGWi.s 			page 4


  24:/usr/local/lib/gcc/avr/4.3.4/../../../../avr/include/util/delay.h ****   LIABLE FOR ANY DIRECT, INDIRECT, INCIDENTAL, SPECIAL, EXEMPLARY, OR
  25:/usr/local/lib/gcc/avr/4.3.4/../../../../avr/include/util/delay.h ****   CONSEQUENTIAL DAMAGES (INCLUDING, BUT NOT LIMITED TO, PROCUREMENT OF
  26:/usr/local/lib/gcc/avr/4.3.4/../../../../avr/include/util/delay.h ****   SUBSTITUTE GOODS OR SERVICES; LOSS OF USE, DATA, OR PROFITS; OR BUSINESS
  27:/usr/local/lib/gcc/avr/4.3.4/../../../../avr/include/util/delay.h ****   INTERRUPTION) HOWEVER CAUSED AND ON ANY THEORY OF LIABILITY, WHETHER IN
  28:/usr/local/lib/gcc/avr/4.3.4/../../../../avr/include/util/delay.h ****   CONTRACT, STRICT LIABILITY, OR TORT (INCLUDING NEGLIGENCE OR OTHERWISE)
  29:/usr/local/lib/gcc/avr/4.3.4/../../../../avr/include/util/delay.h ****   ARISING IN ANY WAY OUT OF THE USE OF THIS SOFTWARE, EVEN IF ADVISED OF THE
  30:/usr/local/lib/gcc/avr/4.3.4/../../../../avr/include/util/delay.h ****   POSSIBILITY OF SUCH DAMAGE. */
  31:/usr/local/lib/gcc/avr/4.3.4/../../../../avr/include/util/delay.h **** 
  32:/usr/local/lib/gcc/avr/4.3.4/../../../../avr/include/util/delay.h **** /* $Id: delay.h.in 2251 2011-09-14 08:20:33Z joerg_wunsch $ */
  33:/usr/local/lib/gcc/avr/4.3.4/../../../../avr/include/util/delay.h **** 
  34:/usr/local/lib/gcc/avr/4.3.4/../../../../avr/include/util/delay.h **** #ifndef _UTIL_DELAY_H_
  35:/usr/local/lib/gcc/avr/4.3.4/../../../../avr/include/util/delay.h **** #define _UTIL_DELAY_H_ 1
  36:/usr/local/lib/gcc/avr/4.3.4/../../../../avr/include/util/delay.h **** 
  37:/usr/local/lib/gcc/avr/4.3.4/../../../../avr/include/util/delay.h **** #ifndef __HAS_DELAY_CYCLES
  38:/usr/local/lib/gcc/avr/4.3.4/../../../../avr/include/util/delay.h **** #define __HAS_DELAY_CYCLES 1
  39:/usr/local/lib/gcc/avr/4.3.4/../../../../avr/include/util/delay.h **** #endif
  40:/usr/local/lib/gcc/avr/4.3.4/../../../../avr/include/util/delay.h **** 
  41:/usr/local/lib/gcc/avr/4.3.4/../../../../avr/include/util/delay.h **** #include <inttypes.h>
  42:/usr/local/lib/gcc/avr/4.3.4/../../../../avr/include/util/delay.h **** #include <util/delay_basic.h>
  43:/usr/local/lib/gcc/avr/4.3.4/../../../../avr/include/util/delay.h **** #include <math.h>
  44:/usr/local/lib/gcc/avr/4.3.4/../../../../avr/include/util/delay.h **** 
  45:/usr/local/lib/gcc/avr/4.3.4/../../../../avr/include/util/delay.h **** /** \file */
  46:/usr/local/lib/gcc/avr/4.3.4/../../../../avr/include/util/delay.h **** /** \defgroup util_delay <util/delay.h>: Convenience functions for busy-wait delay loops
  47:/usr/local/lib/gcc/avr/4.3.4/../../../../avr/include/util/delay.h ****     \code
  48:/usr/local/lib/gcc/avr/4.3.4/../../../../avr/include/util/delay.h ****     #define F_CPU 1000000UL  // 1 MHz
  49:/usr/local/lib/gcc/avr/4.3.4/../../../../avr/include/util/delay.h ****     //#define F_CPU 14.7456E6
  50:/usr/local/lib/gcc/avr/4.3.4/../../../../avr/include/util/delay.h ****     #include <util/delay.h>
  51:/usr/local/lib/gcc/avr/4.3.4/../../../../avr/include/util/delay.h ****     \endcode
  52:/usr/local/lib/gcc/avr/4.3.4/../../../../avr/include/util/delay.h **** 
  53:/usr/local/lib/gcc/avr/4.3.4/../../../../avr/include/util/delay.h ****     \note As an alternative method, it is possible to pass the
  54:/usr/local/lib/gcc/avr/4.3.4/../../../../avr/include/util/delay.h ****     F_CPU macro down to the compiler from the Makefile.
  55:/usr/local/lib/gcc/avr/4.3.4/../../../../avr/include/util/delay.h ****     Obviously, in that case, no \c \#define statement should be
  56:/usr/local/lib/gcc/avr/4.3.4/../../../../avr/include/util/delay.h ****     used.
  57:/usr/local/lib/gcc/avr/4.3.4/../../../../avr/include/util/delay.h **** 
  58:/usr/local/lib/gcc/avr/4.3.4/../../../../avr/include/util/delay.h ****     The functions in this header file are wrappers around the basic
  59:/usr/local/lib/gcc/avr/4.3.4/../../../../avr/include/util/delay.h ****     busy-wait functions from <util/delay_basic.h>.  They are meant as
  60:/usr/local/lib/gcc/avr/4.3.4/../../../../avr/include/util/delay.h ****     convenience functions where actual time values can be specified
  61:/usr/local/lib/gcc/avr/4.3.4/../../../../avr/include/util/delay.h ****     rather than a number of cycles to wait for.  The idea behind is
  62:/usr/local/lib/gcc/avr/4.3.4/../../../../avr/include/util/delay.h ****     that compile-time constant expressions will be eliminated by
  63:/usr/local/lib/gcc/avr/4.3.4/../../../../avr/include/util/delay.h ****     compiler optimization so floating-point expressions can be used
  64:/usr/local/lib/gcc/avr/4.3.4/../../../../avr/include/util/delay.h ****     to calculate the number of delay cycles needed based on the CPU
  65:/usr/local/lib/gcc/avr/4.3.4/../../../../avr/include/util/delay.h ****     frequency passed by the macro F_CPU.
  66:/usr/local/lib/gcc/avr/4.3.4/../../../../avr/include/util/delay.h **** 
  67:/usr/local/lib/gcc/avr/4.3.4/../../../../avr/include/util/delay.h ****     \note In order for these functions to work as intended, compiler
  68:/usr/local/lib/gcc/avr/4.3.4/../../../../avr/include/util/delay.h ****     optimizations <em>must</em> be enabled, and the delay time
  69:/usr/local/lib/gcc/avr/4.3.4/../../../../avr/include/util/delay.h ****     <em>must</em> be an expression that is a known constant at
  70:/usr/local/lib/gcc/avr/4.3.4/../../../../avr/include/util/delay.h ****     compile-time.  If these requirements are not met, the resulting
  71:/usr/local/lib/gcc/avr/4.3.4/../../../../avr/include/util/delay.h ****     delay will be much longer (and basically unpredictable), and
  72:/usr/local/lib/gcc/avr/4.3.4/../../../../avr/include/util/delay.h ****     applications that otherwise do not use floating-point calculations
  73:/usr/local/lib/gcc/avr/4.3.4/../../../../avr/include/util/delay.h ****     will experience severe code bloat by the floating-point library
  74:/usr/local/lib/gcc/avr/4.3.4/../../../../avr/include/util/delay.h ****     routines linked into the application.
  75:/usr/local/lib/gcc/avr/4.3.4/../../../../avr/include/util/delay.h **** 
  76:/usr/local/lib/gcc/avr/4.3.4/../../../../avr/include/util/delay.h ****     The functions available allow the specification of microsecond, and
  77:/usr/local/lib/gcc/avr/4.3.4/../../../../avr/include/util/delay.h ****     millisecond delays directly, using the application-supplied macro
  78:/usr/local/lib/gcc/avr/4.3.4/../../../../avr/include/util/delay.h ****     F_CPU as the CPU clock frequency (in Hertz).
  79:/usr/local/lib/gcc/avr/4.3.4/../../../../avr/include/util/delay.h **** 
  80:/usr/local/lib/gcc/avr/4.3.4/../../../../avr/include/util/delay.h **** */
GAS LISTING /tmp//cc5ihGWi.s 			page 5


  81:/usr/local/lib/gcc/avr/4.3.4/../../../../avr/include/util/delay.h **** 
  82:/usr/local/lib/gcc/avr/4.3.4/../../../../avr/include/util/delay.h **** #if !defined(__DOXYGEN__)
  83:/usr/local/lib/gcc/avr/4.3.4/../../../../avr/include/util/delay.h **** static inline void _delay_us(double __us) __attribute__((always_inline));
  84:/usr/local/lib/gcc/avr/4.3.4/../../../../avr/include/util/delay.h **** static inline void _delay_ms(double __ms) __attribute__((always_inline));
  85:/usr/local/lib/gcc/avr/4.3.4/../../../../avr/include/util/delay.h **** #endif
  86:/usr/local/lib/gcc/avr/4.3.4/../../../../avr/include/util/delay.h **** 
  87:/usr/local/lib/gcc/avr/4.3.4/../../../../avr/include/util/delay.h **** #ifndef F_CPU
  88:/usr/local/lib/gcc/avr/4.3.4/../../../../avr/include/util/delay.h **** /* prevent compiler error by supplying a default */
  89:/usr/local/lib/gcc/avr/4.3.4/../../../../avr/include/util/delay.h **** # warning "F_CPU not defined for <util/delay.h>"
  90:/usr/local/lib/gcc/avr/4.3.4/../../../../avr/include/util/delay.h **** # define F_CPU 1000000UL
  91:/usr/local/lib/gcc/avr/4.3.4/../../../../avr/include/util/delay.h **** #endif
  92:/usr/local/lib/gcc/avr/4.3.4/../../../../avr/include/util/delay.h **** 
  93:/usr/local/lib/gcc/avr/4.3.4/../../../../avr/include/util/delay.h **** #ifndef __OPTIMIZE__
  94:/usr/local/lib/gcc/avr/4.3.4/../../../../avr/include/util/delay.h **** # warning "Compiler optimizations disabled; functions from <util/delay.h> won't work as designed"
  95:/usr/local/lib/gcc/avr/4.3.4/../../../../avr/include/util/delay.h **** #endif
  96:/usr/local/lib/gcc/avr/4.3.4/../../../../avr/include/util/delay.h **** 
  97:/usr/local/lib/gcc/avr/4.3.4/../../../../avr/include/util/delay.h **** #if __HAS_DELAY_CYCLES && defined(__OPTIMIZE__) && \
  98:/usr/local/lib/gcc/avr/4.3.4/../../../../avr/include/util/delay.h ****   !defined(__DELAY_BACKWARD_COMPATIBLE__) &&	   \
  99:/usr/local/lib/gcc/avr/4.3.4/../../../../avr/include/util/delay.h ****   __STDC_HOSTED__
 100:/usr/local/lib/gcc/avr/4.3.4/../../../../avr/include/util/delay.h **** #  include <math.h>
 101:/usr/local/lib/gcc/avr/4.3.4/../../../../avr/include/util/delay.h **** #endif
 102:/usr/local/lib/gcc/avr/4.3.4/../../../../avr/include/util/delay.h **** 
 103:/usr/local/lib/gcc/avr/4.3.4/../../../../avr/include/util/delay.h **** /**
 104:/usr/local/lib/gcc/avr/4.3.4/../../../../avr/include/util/delay.h ****    \ingroup util_delay
 105:/usr/local/lib/gcc/avr/4.3.4/../../../../avr/include/util/delay.h **** 
 106:/usr/local/lib/gcc/avr/4.3.4/../../../../avr/include/util/delay.h ****    Perform a delay of \c __ms milliseconds, using _delay_loop_2().
 107:/usr/local/lib/gcc/avr/4.3.4/../../../../avr/include/util/delay.h **** 
 108:/usr/local/lib/gcc/avr/4.3.4/../../../../avr/include/util/delay.h ****    The macro F_CPU is supposed to be defined to a
 109:/usr/local/lib/gcc/avr/4.3.4/../../../../avr/include/util/delay.h ****    constant defining the CPU clock frequency (in Hertz).
 110:/usr/local/lib/gcc/avr/4.3.4/../../../../avr/include/util/delay.h **** 
 111:/usr/local/lib/gcc/avr/4.3.4/../../../../avr/include/util/delay.h ****    The maximal possible delay is 262.14 ms / F_CPU in MHz.
 112:/usr/local/lib/gcc/avr/4.3.4/../../../../avr/include/util/delay.h **** 
 113:/usr/local/lib/gcc/avr/4.3.4/../../../../avr/include/util/delay.h ****    When the user request delay which exceed the maximum possible one,
 114:/usr/local/lib/gcc/avr/4.3.4/../../../../avr/include/util/delay.h ****    _delay_ms() provides a decreased resolution functionality. In this
 115:/usr/local/lib/gcc/avr/4.3.4/../../../../avr/include/util/delay.h ****    mode _delay_ms() will work with a resolution of 1/10 ms, providing
 116:/usr/local/lib/gcc/avr/4.3.4/../../../../avr/include/util/delay.h ****    delays up to 6.5535 seconds (independent from CPU frequency).  The
 117:/usr/local/lib/gcc/avr/4.3.4/../../../../avr/include/util/delay.h ****    user will not be informed about decreased resolution.
 118:/usr/local/lib/gcc/avr/4.3.4/../../../../avr/include/util/delay.h **** 
 119:/usr/local/lib/gcc/avr/4.3.4/../../../../avr/include/util/delay.h ****    If the avr-gcc toolchain has __builtin_avr_delay_cycles(unsigned long)
 120:/usr/local/lib/gcc/avr/4.3.4/../../../../avr/include/util/delay.h ****    support, maximal possible delay is 4294967.295 ms/ F_CPU in MHz. For
 121:/usr/local/lib/gcc/avr/4.3.4/../../../../avr/include/util/delay.h ****    values greater than the maximal possible delay, overflows results in
 122:/usr/local/lib/gcc/avr/4.3.4/../../../../avr/include/util/delay.h ****    no delay i.e., 0ms.
 123:/usr/local/lib/gcc/avr/4.3.4/../../../../avr/include/util/delay.h **** 
 124:/usr/local/lib/gcc/avr/4.3.4/../../../../avr/include/util/delay.h ****    Conversion of __us into clock cycles may not always result in integer.
 125:/usr/local/lib/gcc/avr/4.3.4/../../../../avr/include/util/delay.h ****    By default, the clock cycles rounded up to next integer. This ensures that
 126:/usr/local/lib/gcc/avr/4.3.4/../../../../avr/include/util/delay.h ****    the user gets atleast __us microseconds of delay.
 127:/usr/local/lib/gcc/avr/4.3.4/../../../../avr/include/util/delay.h **** 
 128:/usr/local/lib/gcc/avr/4.3.4/../../../../avr/include/util/delay.h ****    Alternatively, user can define __DELAY_ROUND_DOWN__ and __DELAY_ROUND_CLOSEST__
 129:/usr/local/lib/gcc/avr/4.3.4/../../../../avr/include/util/delay.h ****    to round down and round to closest integer.
 130:/usr/local/lib/gcc/avr/4.3.4/../../../../avr/include/util/delay.h **** 
 131:/usr/local/lib/gcc/avr/4.3.4/../../../../avr/include/util/delay.h ****    Note: The new implementation of _delay_ms(double __ms) with 
 132:/usr/local/lib/gcc/avr/4.3.4/../../../../avr/include/util/delay.h ****     __builtin_avr_delay_cycles(unsigned long) support is not backward compatible. 
 133:/usr/local/lib/gcc/avr/4.3.4/../../../../avr/include/util/delay.h ****    User can define __DELAY_BACKWARD_COMPATIBLE__ to get a backward compatible delay.
 134:/usr/local/lib/gcc/avr/4.3.4/../../../../avr/include/util/delay.h ****    Also, the backward compatible
 135:/usr/local/lib/gcc/avr/4.3.4/../../../../avr/include/util/delay.h ****    algorithm will be chosen if the code is compiled in a <em>freestanding
 136:/usr/local/lib/gcc/avr/4.3.4/../../../../avr/include/util/delay.h ****    environment</em> (GCC option \c -ffreestanding), as the math functions
 137:/usr/local/lib/gcc/avr/4.3.4/../../../../avr/include/util/delay.h ****    required for rounding are not available to the compiler then.
GAS LISTING /tmp//cc5ihGWi.s 			page 6


 138:/usr/local/lib/gcc/avr/4.3.4/../../../../avr/include/util/delay.h **** 
 139:/usr/local/lib/gcc/avr/4.3.4/../../../../avr/include/util/delay.h ****  */
 140:/usr/local/lib/gcc/avr/4.3.4/../../../../avr/include/util/delay.h **** void
 141:/usr/local/lib/gcc/avr/4.3.4/../../../../avr/include/util/delay.h **** _delay_ms(double __ms)
 142:/usr/local/lib/gcc/avr/4.3.4/../../../../avr/include/util/delay.h **** {
 143:/usr/local/lib/gcc/avr/4.3.4/../../../../avr/include/util/delay.h **** 	uint16_t __ticks;
 144:/usr/local/lib/gcc/avr/4.3.4/../../../../avr/include/util/delay.h **** 	double __tmp ; 
 145:/usr/local/lib/gcc/avr/4.3.4/../../../../avr/include/util/delay.h **** #if __HAS_DELAY_CYCLES && defined(__OPTIMIZE__) && \
 146:/usr/local/lib/gcc/avr/4.3.4/../../../../avr/include/util/delay.h ****   !defined(__DELAY_BACKWARD_COMPATIBLE__) &&	   \
 147:/usr/local/lib/gcc/avr/4.3.4/../../../../avr/include/util/delay.h ****   __STDC_HOSTED__
 148:/usr/local/lib/gcc/avr/4.3.4/../../../../avr/include/util/delay.h **** 	uint32_t __ticks_dc;
 149:/usr/local/lib/gcc/avr/4.3.4/../../../../avr/include/util/delay.h **** 	extern void __builtin_avr_delay_cycles(unsigned long);
 150:/usr/local/lib/gcc/avr/4.3.4/../../../../avr/include/util/delay.h **** 	__tmp = ((F_CPU) / 1e3) * __ms;
 151:/usr/local/lib/gcc/avr/4.3.4/../../../../avr/include/util/delay.h **** 
 152:/usr/local/lib/gcc/avr/4.3.4/../../../../avr/include/util/delay.h **** 	#if defined(__DELAY_ROUND_DOWN__)
 153:/usr/local/lib/gcc/avr/4.3.4/../../../../avr/include/util/delay.h **** 		__ticks_dc = (uint32_t)fabs(__tmp);
 154:/usr/local/lib/gcc/avr/4.3.4/../../../../avr/include/util/delay.h **** 
 155:/usr/local/lib/gcc/avr/4.3.4/../../../../avr/include/util/delay.h **** 	#elif defined(__DELAY_ROUND_CLOSEST__)
 156:/usr/local/lib/gcc/avr/4.3.4/../../../../avr/include/util/delay.h **** 		__ticks_dc = (uint32_t)(fabs(__tmp)+0.5);
 157:/usr/local/lib/gcc/avr/4.3.4/../../../../avr/include/util/delay.h **** 
 158:/usr/local/lib/gcc/avr/4.3.4/../../../../avr/include/util/delay.h **** 	#else
 159:/usr/local/lib/gcc/avr/4.3.4/../../../../avr/include/util/delay.h **** 		//round up by default
 160:/usr/local/lib/gcc/avr/4.3.4/../../../../avr/include/util/delay.h **** 		__ticks_dc = (uint32_t)(ceil(fabs(__tmp)));
 161:/usr/local/lib/gcc/avr/4.3.4/../../../../avr/include/util/delay.h **** 	#endif
 162:/usr/local/lib/gcc/avr/4.3.4/../../../../avr/include/util/delay.h **** 
 163:/usr/local/lib/gcc/avr/4.3.4/../../../../avr/include/util/delay.h **** 	__builtin_avr_delay_cycles(__ticks_dc);
 164:/usr/local/lib/gcc/avr/4.3.4/../../../../avr/include/util/delay.h **** 
 165:/usr/local/lib/gcc/avr/4.3.4/../../../../avr/include/util/delay.h **** #else
 166:/usr/local/lib/gcc/avr/4.3.4/../../../../avr/include/util/delay.h **** 	__tmp = ((F_CPU) / 4e3) * __ms;
 114               		.stabn	68,0,167,.LM3-.LFBB1
 115               	.LM3:
 116 0034 698D      		ldd r22,Y+25
 117 0036 7A8D      		ldd r23,Y+26
 118 0038 8B8D      		ldd r24,Y+27
 119 003a 9C8D      		ldd r25,Y+28
 120 003c 20E0      		ldi r18,lo8(0x437a0000)
 121 003e 30E0      		ldi r19,hi8(0x437a0000)
 122 0040 4AE7      		ldi r20,hlo8(0x437a0000)
 123 0042 53E4      		ldi r21,hhi8(0x437a0000)
 124 0044 0E94 0000 		call __mulsf3
 125 0048 DC01      		movw r26,r24
 126 004a CB01      		movw r24,r22
 127 004c 8D8B      		std Y+21,r24
 128 004e 9E8B      		std Y+22,r25
 129 0050 AF8B      		std Y+23,r26
 130 0052 B88F      		std Y+24,r27
 167:/usr/local/lib/gcc/avr/4.3.4/../../../../avr/include/util/delay.h **** 	if (__tmp < 1.0)
 131               		.stabn	68,0,168,.LM4-.LFBB1
 132               	.LM4:
 133 0054 6D89      		ldd r22,Y+21
 134 0056 7E89      		ldd r23,Y+22
 135 0058 8F89      		ldd r24,Y+23
 136 005a 988D      		ldd r25,Y+24
 137 005c 20E0      		ldi r18,lo8(0x3f800000)
 138 005e 30E0      		ldi r19,hi8(0x3f800000)
 139 0060 40E8      		ldi r20,hlo8(0x3f800000)
 140 0062 5FE3      		ldi r21,hhi8(0x3f800000)
GAS LISTING /tmp//cc5ihGWi.s 			page 7


 141 0064 0E94 0000 		call __ltsf2
 142 0068 8823      		tst r24
 143 006a 04F4      		brge .L24
 144               	.L20:
 168:/usr/local/lib/gcc/avr/4.3.4/../../../../avr/include/util/delay.h **** 		__ticks = 1;
 145               		.stabn	68,0,169,.LM5-.LFBB1
 146               	.LM5:
 147 006c 81E0      		ldi r24,lo8(1)
 148 006e 90E0      		ldi r25,hi8(1)
 149 0070 9C8B      		std Y+20,r25
 150 0072 8B8B      		std Y+19,r24
 151 0074 00C0      		rjmp .L4
 152               	.L24:
 169:/usr/local/lib/gcc/avr/4.3.4/../../../../avr/include/util/delay.h **** 	else if (__tmp > 65535)
 153               		.stabn	68,0,170,.LM6-.LFBB1
 154               	.LM6:
 155 0076 6D89      		ldd r22,Y+21
 156 0078 7E89      		ldd r23,Y+22
 157 007a 8F89      		ldd r24,Y+23
 158 007c 988D      		ldd r25,Y+24
 159 007e 20E0      		ldi r18,lo8(0x477fff00)
 160 0080 3FEF      		ldi r19,hi8(0x477fff00)
 161 0082 4FE7      		ldi r20,hlo8(0x477fff00)
 162 0084 57E4      		ldi r21,hhi8(0x477fff00)
 163 0086 0E94 0000 		call __gtsf2
 164 008a 1816      		cp __zero_reg__,r24
 165 008c 04F4      		brge .L25
 166               	.L21:
 170:/usr/local/lib/gcc/avr/4.3.4/../../../../avr/include/util/delay.h **** 	{
 171:/usr/local/lib/gcc/avr/4.3.4/../../../../avr/include/util/delay.h **** 		//	__ticks = requested delay in 1/10 ms
 172:/usr/local/lib/gcc/avr/4.3.4/../../../../avr/include/util/delay.h **** 		__ticks = (uint16_t) (__ms * 10.0);
 167               		.stabn	68,0,173,.LM7-.LFBB1
 168               	.LM7:
 169 008e 698D      		ldd r22,Y+25
 170 0090 7A8D      		ldd r23,Y+26
 171 0092 8B8D      		ldd r24,Y+27
 172 0094 9C8D      		ldd r25,Y+28
 173 0096 20E0      		ldi r18,lo8(0x41200000)
 174 0098 30E0      		ldi r19,hi8(0x41200000)
 175 009a 40E2      		ldi r20,hlo8(0x41200000)
 176 009c 51E4      		ldi r21,hhi8(0x41200000)
 177 009e 0E94 0000 		call __mulsf3
 178 00a2 DC01      		movw r26,r24
 179 00a4 CB01      		movw r24,r22
 180 00a6 BC01      		movw r22,r24
 181 00a8 CD01      		movw r24,r26
 182 00aa 0E94 0000 		call __fixunssfsi
 183 00ae DC01      		movw r26,r24
 184 00b0 CB01      		movw r24,r22
 185 00b2 9C8B      		std Y+20,r25
 186 00b4 8B8B      		std Y+19,r24
 187 00b6 00C0      		rjmp .L7
 188               	.L8:
 189 00b8 89E1      		ldi r24,lo8(25)
 190 00ba 90E0      		ldi r25,hi8(25)
 191 00bc 9A8B      		std Y+18,r25
 192 00be 898B      		std Y+17,r24
GAS LISTING /tmp//cc5ihGWi.s 			page 8


 193               	.LBB16:
 194               	.LBB17:
 195               		.stabs	"/usr/local/lib/gcc/avr/4.3.4/../../../../avr/include/util/delay_basic.h",132,0,0,.Ltext2
 196               	.Ltext2:
   0:/usr/local/lib/gcc/avr/4.3.4/../../../../avr/include/util/delay_basic.h **** /* Copyright (c) 2002, Marek Michalkiewicz
   1:/usr/local/lib/gcc/avr/4.3.4/../../../../avr/include/util/delay_basic.h ****    Copyright (c) 2007 Joerg Wunsch
   2:/usr/local/lib/gcc/avr/4.3.4/../../../../avr/include/util/delay_basic.h ****    All rights reserved.
   3:/usr/local/lib/gcc/avr/4.3.4/../../../../avr/include/util/delay_basic.h **** 
   4:/usr/local/lib/gcc/avr/4.3.4/../../../../avr/include/util/delay_basic.h ****    Redistribution and use in source and binary forms, with or without
   5:/usr/local/lib/gcc/avr/4.3.4/../../../../avr/include/util/delay_basic.h ****    modification, are permitted provided that the following conditions are met:
   6:/usr/local/lib/gcc/avr/4.3.4/../../../../avr/include/util/delay_basic.h **** 
   7:/usr/local/lib/gcc/avr/4.3.4/../../../../avr/include/util/delay_basic.h ****    * Redistributions of source code must retain the above copyright
   8:/usr/local/lib/gcc/avr/4.3.4/../../../../avr/include/util/delay_basic.h ****      notice, this list of conditions and the following disclaimer.
   9:/usr/local/lib/gcc/avr/4.3.4/../../../../avr/include/util/delay_basic.h **** 
  10:/usr/local/lib/gcc/avr/4.3.4/../../../../avr/include/util/delay_basic.h ****    * Redistributions in binary form must reproduce the above copyright
  11:/usr/local/lib/gcc/avr/4.3.4/../../../../avr/include/util/delay_basic.h ****      notice, this list of conditions and the following disclaimer in
  12:/usr/local/lib/gcc/avr/4.3.4/../../../../avr/include/util/delay_basic.h ****      the documentation and/or other materials provided with the
  13:/usr/local/lib/gcc/avr/4.3.4/../../../../avr/include/util/delay_basic.h ****      distribution.
  14:/usr/local/lib/gcc/avr/4.3.4/../../../../avr/include/util/delay_basic.h **** 
  15:/usr/local/lib/gcc/avr/4.3.4/../../../../avr/include/util/delay_basic.h ****    * Neither the name of the copyright holders nor the names of
  16:/usr/local/lib/gcc/avr/4.3.4/../../../../avr/include/util/delay_basic.h ****      contributors may be used to endorse or promote products derived
  17:/usr/local/lib/gcc/avr/4.3.4/../../../../avr/include/util/delay_basic.h ****      from this software without specific prior written permission.
  18:/usr/local/lib/gcc/avr/4.3.4/../../../../avr/include/util/delay_basic.h **** 
  19:/usr/local/lib/gcc/avr/4.3.4/../../../../avr/include/util/delay_basic.h ****   THIS SOFTWARE IS PROVIDED BY THE COPYRIGHT HOLDERS AND CONTRIBUTORS "AS IS"
  20:/usr/local/lib/gcc/avr/4.3.4/../../../../avr/include/util/delay_basic.h ****   AND ANY EXPRESS OR IMPLIED WARRANTIES, INCLUDING, BUT NOT LIMITED TO, THE
  21:/usr/local/lib/gcc/avr/4.3.4/../../../../avr/include/util/delay_basic.h ****   IMPLIED WARRANTIES OF MERCHANTABILITY AND FITNESS FOR A PARTICULAR PURPOSE
  22:/usr/local/lib/gcc/avr/4.3.4/../../../../avr/include/util/delay_basic.h ****   ARE DISCLAIMED. IN NO EVENT SHALL THE COPYRIGHT OWNER OR CONTRIBUTORS BE
  23:/usr/local/lib/gcc/avr/4.3.4/../../../../avr/include/util/delay_basic.h ****   LIABLE FOR ANY DIRECT, INDIRECT, INCIDENTAL, SPECIAL, EXEMPLARY, OR
  24:/usr/local/lib/gcc/avr/4.3.4/../../../../avr/include/util/delay_basic.h ****   CONSEQUENTIAL DAMAGES (INCLUDING, BUT NOT LIMITED TO, PROCUREMENT OF
  25:/usr/local/lib/gcc/avr/4.3.4/../../../../avr/include/util/delay_basic.h ****   SUBSTITUTE GOODS OR SERVICES; LOSS OF USE, DATA, OR PROFITS; OR BUSINESS
  26:/usr/local/lib/gcc/avr/4.3.4/../../../../avr/include/util/delay_basic.h ****   INTERRUPTION) HOWEVER CAUSED AND ON ANY THEORY OF LIABILITY, WHETHER IN
  27:/usr/local/lib/gcc/avr/4.3.4/../../../../avr/include/util/delay_basic.h ****   CONTRACT, STRICT LIABILITY, OR TORT (INCLUDING NEGLIGENCE OR OTHERWISE)
  28:/usr/local/lib/gcc/avr/4.3.4/../../../../avr/include/util/delay_basic.h ****   ARISING IN ANY WAY OUT OF THE USE OF THIS SOFTWARE, EVEN IF ADVISED OF THE
  29:/usr/local/lib/gcc/avr/4.3.4/../../../../avr/include/util/delay_basic.h ****   POSSIBILITY OF SUCH DAMAGE. */
  30:/usr/local/lib/gcc/avr/4.3.4/../../../../avr/include/util/delay_basic.h **** 
  31:/usr/local/lib/gcc/avr/4.3.4/../../../../avr/include/util/delay_basic.h **** /* $Id: delay_basic.h 2143 2010-06-08 21:19:51Z joerg_wunsch $ */
  32:/usr/local/lib/gcc/avr/4.3.4/../../../../avr/include/util/delay_basic.h **** 
  33:/usr/local/lib/gcc/avr/4.3.4/../../../../avr/include/util/delay_basic.h **** #ifndef _UTIL_DELAY_BASIC_H_
  34:/usr/local/lib/gcc/avr/4.3.4/../../../../avr/include/util/delay_basic.h **** #define _UTIL_DELAY_BASIC_H_ 1
  35:/usr/local/lib/gcc/avr/4.3.4/../../../../avr/include/util/delay_basic.h **** 
  36:/usr/local/lib/gcc/avr/4.3.4/../../../../avr/include/util/delay_basic.h **** #include <inttypes.h>
  37:/usr/local/lib/gcc/avr/4.3.4/../../../../avr/include/util/delay_basic.h **** 
  38:/usr/local/lib/gcc/avr/4.3.4/../../../../avr/include/util/delay_basic.h **** #if !defined(__DOXYGEN__)
  39:/usr/local/lib/gcc/avr/4.3.4/../../../../avr/include/util/delay_basic.h **** static inline void _delay_loop_1(uint8_t __count) __attribute__((always_inline));
  40:/usr/local/lib/gcc/avr/4.3.4/../../../../avr/include/util/delay_basic.h **** static inline void _delay_loop_2(uint16_t __count) __attribute__((always_inline));
  41:/usr/local/lib/gcc/avr/4.3.4/../../../../avr/include/util/delay_basic.h **** #endif
  42:/usr/local/lib/gcc/avr/4.3.4/../../../../avr/include/util/delay_basic.h **** 
  43:/usr/local/lib/gcc/avr/4.3.4/../../../../avr/include/util/delay_basic.h **** /** \file */
  44:/usr/local/lib/gcc/avr/4.3.4/../../../../avr/include/util/delay_basic.h **** /** \defgroup util_delay_basic <util/delay_basic.h>: Basic busy-wait delay loops
  45:/usr/local/lib/gcc/avr/4.3.4/../../../../avr/include/util/delay_basic.h ****     \code
  46:/usr/local/lib/gcc/avr/4.3.4/../../../../avr/include/util/delay_basic.h ****     #include <util/delay_basic.h>
  47:/usr/local/lib/gcc/avr/4.3.4/../../../../avr/include/util/delay_basic.h ****     \endcode
  48:/usr/local/lib/gcc/avr/4.3.4/../../../../avr/include/util/delay_basic.h **** 
  49:/usr/local/lib/gcc/avr/4.3.4/../../../../avr/include/util/delay_basic.h ****     The functions in this header file implement simple delay loops
  50:/usr/local/lib/gcc/avr/4.3.4/../../../../avr/include/util/delay_basic.h ****     that perform a busy-waiting.  They are typically used to
  51:/usr/local/lib/gcc/avr/4.3.4/../../../../avr/include/util/delay_basic.h ****     facilitate short delays in the program execution.  They are
  52:/usr/local/lib/gcc/avr/4.3.4/../../../../avr/include/util/delay_basic.h ****     implemented as count-down loops with a well-known CPU cycle
GAS LISTING /tmp//cc5ihGWi.s 			page 9


  53:/usr/local/lib/gcc/avr/4.3.4/../../../../avr/include/util/delay_basic.h ****     count per loop iteration.  As such, no other processing can
  54:/usr/local/lib/gcc/avr/4.3.4/../../../../avr/include/util/delay_basic.h ****     occur simultaneously.  It should be kept in mind that the
  55:/usr/local/lib/gcc/avr/4.3.4/../../../../avr/include/util/delay_basic.h ****     functions described here do not disable interrupts.
  56:/usr/local/lib/gcc/avr/4.3.4/../../../../avr/include/util/delay_basic.h **** 
  57:/usr/local/lib/gcc/avr/4.3.4/../../../../avr/include/util/delay_basic.h ****     In general, for long delays, the use of hardware timers is
  58:/usr/local/lib/gcc/avr/4.3.4/../../../../avr/include/util/delay_basic.h ****     much preferrable, as they free the CPU, and allow for
  59:/usr/local/lib/gcc/avr/4.3.4/../../../../avr/include/util/delay_basic.h ****     concurrent processing of other events while the timer is
  60:/usr/local/lib/gcc/avr/4.3.4/../../../../avr/include/util/delay_basic.h ****     running.  However, in particular for very short delays, the
  61:/usr/local/lib/gcc/avr/4.3.4/../../../../avr/include/util/delay_basic.h ****     overhead of setting up a hardware timer is too much compared
  62:/usr/local/lib/gcc/avr/4.3.4/../../../../avr/include/util/delay_basic.h ****     to the overall delay time.
  63:/usr/local/lib/gcc/avr/4.3.4/../../../../avr/include/util/delay_basic.h **** 
  64:/usr/local/lib/gcc/avr/4.3.4/../../../../avr/include/util/delay_basic.h ****     Two inline functions are provided for the actual delay algorithms.
  65:/usr/local/lib/gcc/avr/4.3.4/../../../../avr/include/util/delay_basic.h **** 
  66:/usr/local/lib/gcc/avr/4.3.4/../../../../avr/include/util/delay_basic.h **** */
  67:/usr/local/lib/gcc/avr/4.3.4/../../../../avr/include/util/delay_basic.h **** 
  68:/usr/local/lib/gcc/avr/4.3.4/../../../../avr/include/util/delay_basic.h **** /** \ingroup util_delay_basic
  69:/usr/local/lib/gcc/avr/4.3.4/../../../../avr/include/util/delay_basic.h **** 
  70:/usr/local/lib/gcc/avr/4.3.4/../../../../avr/include/util/delay_basic.h ****     Delay loop using an 8-bit counter \c __count, so up to 256
  71:/usr/local/lib/gcc/avr/4.3.4/../../../../avr/include/util/delay_basic.h ****     iterations are possible.  (The value 256 would have to be passed
  72:/usr/local/lib/gcc/avr/4.3.4/../../../../avr/include/util/delay_basic.h ****     as 0.)  The loop executes three CPU cycles per iteration, not
  73:/usr/local/lib/gcc/avr/4.3.4/../../../../avr/include/util/delay_basic.h ****     including the overhead the compiler needs to setup the counter
  74:/usr/local/lib/gcc/avr/4.3.4/../../../../avr/include/util/delay_basic.h ****     register.
  75:/usr/local/lib/gcc/avr/4.3.4/../../../../avr/include/util/delay_basic.h **** 
  76:/usr/local/lib/gcc/avr/4.3.4/../../../../avr/include/util/delay_basic.h ****     Thus, at a CPU speed of 1 MHz, delays of up to 768 microseconds
  77:/usr/local/lib/gcc/avr/4.3.4/../../../../avr/include/util/delay_basic.h ****     can be achieved.
  78:/usr/local/lib/gcc/avr/4.3.4/../../../../avr/include/util/delay_basic.h **** */
  79:/usr/local/lib/gcc/avr/4.3.4/../../../../avr/include/util/delay_basic.h **** void
  80:/usr/local/lib/gcc/avr/4.3.4/../../../../avr/include/util/delay_basic.h **** _delay_loop_1(uint8_t __count)
  81:/usr/local/lib/gcc/avr/4.3.4/../../../../avr/include/util/delay_basic.h **** {
  82:/usr/local/lib/gcc/avr/4.3.4/../../../../avr/include/util/delay_basic.h **** 	__asm__ volatile (
  83:/usr/local/lib/gcc/avr/4.3.4/../../../../avr/include/util/delay_basic.h **** 		"1: dec %0" "\n\t"
  84:/usr/local/lib/gcc/avr/4.3.4/../../../../avr/include/util/delay_basic.h **** 		"brne 1b"
  85:/usr/local/lib/gcc/avr/4.3.4/../../../../avr/include/util/delay_basic.h **** 		: "=r" (__count)
  86:/usr/local/lib/gcc/avr/4.3.4/../../../../avr/include/util/delay_basic.h **** 		: "0" (__count)
  87:/usr/local/lib/gcc/avr/4.3.4/../../../../avr/include/util/delay_basic.h **** 	);
  88:/usr/local/lib/gcc/avr/4.3.4/../../../../avr/include/util/delay_basic.h **** }
  89:/usr/local/lib/gcc/avr/4.3.4/../../../../avr/include/util/delay_basic.h **** 
  90:/usr/local/lib/gcc/avr/4.3.4/../../../../avr/include/util/delay_basic.h **** /** \ingroup util_delay_basic
  91:/usr/local/lib/gcc/avr/4.3.4/../../../../avr/include/util/delay_basic.h **** 
  92:/usr/local/lib/gcc/avr/4.3.4/../../../../avr/include/util/delay_basic.h ****     Delay loop using a 16-bit counter \c __count, so up to 65536
  93:/usr/local/lib/gcc/avr/4.3.4/../../../../avr/include/util/delay_basic.h ****     iterations are possible.  (The value 65536 would have to be
  94:/usr/local/lib/gcc/avr/4.3.4/../../../../avr/include/util/delay_basic.h ****     passed as 0.)  The loop executes four CPU cycles per iteration,
  95:/usr/local/lib/gcc/avr/4.3.4/../../../../avr/include/util/delay_basic.h ****     not including the overhead the compiler requires to setup the
  96:/usr/local/lib/gcc/avr/4.3.4/../../../../avr/include/util/delay_basic.h ****     counter register pair.
  97:/usr/local/lib/gcc/avr/4.3.4/../../../../avr/include/util/delay_basic.h **** 
  98:/usr/local/lib/gcc/avr/4.3.4/../../../../avr/include/util/delay_basic.h ****     Thus, at a CPU speed of 1 MHz, delays of up to about 262.1
  99:/usr/local/lib/gcc/avr/4.3.4/../../../../avr/include/util/delay_basic.h ****     milliseconds can be achieved.
 100:/usr/local/lib/gcc/avr/4.3.4/../../../../avr/include/util/delay_basic.h ****  */
 101:/usr/local/lib/gcc/avr/4.3.4/../../../../avr/include/util/delay_basic.h **** void
 102:/usr/local/lib/gcc/avr/4.3.4/../../../../avr/include/util/delay_basic.h **** _delay_loop_2(uint16_t __count)
 103:/usr/local/lib/gcc/avr/4.3.4/../../../../avr/include/util/delay_basic.h **** {
 104:/usr/local/lib/gcc/avr/4.3.4/../../../../avr/include/util/delay_basic.h **** 	__asm__ volatile (
 197               		.stabn	68,0,105,.LM8-.LFBB1
 198               	.LM8:
 199 00c0 8989      		ldd r24,Y+17
 200 00c2 9A89      		ldd r25,Y+18
 201               	/* #APP */
GAS LISTING /tmp//cc5ihGWi.s 			page 10


 202               	 ;  105 "/usr/local/lib/gcc/avr/4.3.4/../../../../avr/include/util/delay_basic.h" 1
 203 00c4 0197      		1: sbiw r24,1
 204 00c6 01F4      		brne 1b
 205               	 ;  0 "" 2
 206               	/* #NOAPP */
 207 00c8 9A8B      		std Y+18,r25
 208 00ca 898B      		std Y+17,r24
 209               	.LBE17:
 210               	.LBE16:
 211               		.stabs	"/usr/local/lib/gcc/avr/4.3.4/../../../../avr/include/util/delay.h",132,0,0,.Ltext3
 212               	.Ltext3:
 173:/usr/local/lib/gcc/avr/4.3.4/../../../../avr/include/util/delay.h **** 		while(__ticks)
 174:/usr/local/lib/gcc/avr/4.3.4/../../../../avr/include/util/delay.h **** 		{
 175:/usr/local/lib/gcc/avr/4.3.4/../../../../avr/include/util/delay.h **** 			// wait 1/10 ms
 176:/usr/local/lib/gcc/avr/4.3.4/../../../../avr/include/util/delay.h **** 			_delay_loop_2(((F_CPU) / 4e3) / 10);
 177:/usr/local/lib/gcc/avr/4.3.4/../../../../avr/include/util/delay.h **** 			__ticks --;
 213               		.stabn	68,0,178,.LM9-.LFBB1
 214               	.LM9:
 215 00cc 8B89      		ldd r24,Y+19
 216 00ce 9C89      		ldd r25,Y+20
 217 00d0 0197      		sbiw r24,1
 218 00d2 9C8B      		std Y+20,r25
 219 00d4 8B8B      		std Y+19,r24
 220               	.L7:
 174:/usr/local/lib/gcc/avr/4.3.4/../../../../avr/include/util/delay.h **** 		while(__ticks)
 221               		.stabn	68,0,174,.LM10-.LFBB1
 222               	.LM10:
 223 00d6 8B89      		ldd r24,Y+19
 224 00d8 9C89      		ldd r25,Y+20
 225 00da 0097      		sbiw r24,0
 226 00dc 01F4      		brne .L8
 227 00de 00C0      		rjmp .L9
 228               	.L25:
 178:/usr/local/lib/gcc/avr/4.3.4/../../../../avr/include/util/delay.h **** 		}
 179:/usr/local/lib/gcc/avr/4.3.4/../../../../avr/include/util/delay.h **** 		return;
 180:/usr/local/lib/gcc/avr/4.3.4/../../../../avr/include/util/delay.h **** 	}
 181:/usr/local/lib/gcc/avr/4.3.4/../../../../avr/include/util/delay.h **** 	else
 182:/usr/local/lib/gcc/avr/4.3.4/../../../../avr/include/util/delay.h **** 		__ticks = (uint16_t)__tmp;
 229               		.stabn	68,0,183,.LM11-.LFBB1
 230               	.LM11:
 231 00e0 6D89      		ldd r22,Y+21
 232 00e2 7E89      		ldd r23,Y+22
 233 00e4 8F89      		ldd r24,Y+23
 234 00e6 988D      		ldd r25,Y+24
 235 00e8 0E94 0000 		call __fixunssfsi
 236 00ec DC01      		movw r26,r24
 237 00ee CB01      		movw r24,r22
 238 00f0 9C8B      		std Y+20,r25
 239 00f2 8B8B      		std Y+19,r24
 240               	.L4:
 241 00f4 8B89      		ldd r24,Y+19
 242 00f6 9C89      		ldd r25,Y+20
 243 00f8 988B      		std Y+16,r25
 244 00fa 8F87      		std Y+15,r24
 245               	.LBB18:
 246               	.LBB19:
 247               		.stabs	"/usr/local/lib/gcc/avr/4.3.4/../../../../avr/include/util/delay_basic.h",132,0,0,.Ltext4
GAS LISTING /tmp//cc5ihGWi.s 			page 11


 248               	.Ltext4:
 249               		.stabn	68,0,105,.LM12-.LFBB1
 250               	.LM12:
 251 00fc 8F85      		ldd r24,Y+15
 252 00fe 9889      		ldd r25,Y+16
 253               	/* #APP */
 254               	 ;  105 "/usr/local/lib/gcc/avr/4.3.4/../../../../avr/include/util/delay_basic.h" 1
 255 0100 0197      		1: sbiw r24,1
 256 0102 01F4      		brne 1b
 257               	 ;  0 "" 2
 258               	/* #NOAPP */
 259 0104 988B      		std Y+16,r25
 260 0106 8F87      		std Y+15,r24
 261               	.L9:
 262               	.LBE19:
 263               	.LBE18:
 264               	.LBE15:
 265               	.LBE14:
 266               		.stabs	"lesson1.c",132,0,0,.Ltext5
 267               	.Ltext5:
  34:lesson1.c     **** 		_delay_ms(500);
  35:lesson1.c     **** 
  36:lesson1.c     **** 		/* set PORTB low */
  37:lesson1.c     **** 		PORTB = 0x00;
 268               		.stabn	68,0,38,.LM13-.LFBB1
 269               	.LM13:
 270 0108 E5E2      		ldi r30,lo8(37)
 271 010a F0E0      		ldi r31,hi8(37)
 272 010c 1082      		st Z,__zero_reg__
 273 010e 80E0      		ldi r24,lo8(0x43fa0000)
 274 0110 90E0      		ldi r25,hi8(0x43fa0000)
 275 0112 AAEF      		ldi r26,hlo8(0x43fa0000)
 276 0114 B3E4      		ldi r27,hhi8(0x43fa0000)
 277 0116 8B87      		std Y+11,r24
 278 0118 9C87      		std Y+12,r25
 279 011a AD87      		std Y+13,r26
 280 011c BE87      		std Y+14,r27
 281               	.LBB20:
 282               	.LBB21:
 283               		.stabs	"/usr/local/lib/gcc/avr/4.3.4/../../../../avr/include/util/delay.h",132,0,0,.Ltext6
 284               	.Ltext6:
 167:/usr/local/lib/gcc/avr/4.3.4/../../../../avr/include/util/delay.h **** 	__tmp = ((F_CPU) / 4e3) * __ms;
 285               		.stabn	68,0,167,.LM14-.LFBB1
 286               	.LM14:
 287 011e 6B85      		ldd r22,Y+11
 288 0120 7C85      		ldd r23,Y+12
 289 0122 8D85      		ldd r24,Y+13
 290 0124 9E85      		ldd r25,Y+14
 291 0126 20E0      		ldi r18,lo8(0x437a0000)
 292 0128 30E0      		ldi r19,hi8(0x437a0000)
 293 012a 4AE7      		ldi r20,hlo8(0x437a0000)
 294 012c 53E4      		ldi r21,hhi8(0x437a0000)
 295 012e 0E94 0000 		call __mulsf3
 296 0132 DC01      		movw r26,r24
 297 0134 CB01      		movw r24,r22
 298 0136 8F83      		std Y+7,r24
 299 0138 9887      		std Y+8,r25
GAS LISTING /tmp//cc5ihGWi.s 			page 12


 300 013a A987      		std Y+9,r26
 301 013c BA87      		std Y+10,r27
 168:/usr/local/lib/gcc/avr/4.3.4/../../../../avr/include/util/delay.h **** 	if (__tmp < 1.0)
 302               		.stabn	68,0,168,.LM15-.LFBB1
 303               	.LM15:
 304 013e 6F81      		ldd r22,Y+7
 305 0140 7885      		ldd r23,Y+8
 306 0142 8985      		ldd r24,Y+9
 307 0144 9A85      		ldd r25,Y+10
 308 0146 20E0      		ldi r18,lo8(0x3f800000)
 309 0148 30E0      		ldi r19,hi8(0x3f800000)
 310 014a 40E8      		ldi r20,hlo8(0x3f800000)
 311 014c 5FE3      		ldi r21,hhi8(0x3f800000)
 312 014e 0E94 0000 		call __ltsf2
 313 0152 8823      		tst r24
 314 0154 04F4      		brge .L26
 315               	.L22:
 169:/usr/local/lib/gcc/avr/4.3.4/../../../../avr/include/util/delay.h **** 		__ticks = 1;
 316               		.stabn	68,0,169,.LM16-.LFBB1
 317               	.LM16:
 318 0156 81E0      		ldi r24,lo8(1)
 319 0158 90E0      		ldi r25,hi8(1)
 320 015a 9E83      		std Y+6,r25
 321 015c 8D83      		std Y+5,r24
 322 015e 00C0      		rjmp .L12
 323               	.L26:
 170:/usr/local/lib/gcc/avr/4.3.4/../../../../avr/include/util/delay.h **** 	else if (__tmp > 65535)
 324               		.stabn	68,0,170,.LM17-.LFBB1
 325               	.LM17:
 326 0160 6F81      		ldd r22,Y+7
 327 0162 7885      		ldd r23,Y+8
 328 0164 8985      		ldd r24,Y+9
 329 0166 9A85      		ldd r25,Y+10
 330 0168 20E0      		ldi r18,lo8(0x477fff00)
 331 016a 3FEF      		ldi r19,hi8(0x477fff00)
 332 016c 4FE7      		ldi r20,hlo8(0x477fff00)
 333 016e 57E4      		ldi r21,hhi8(0x477fff00)
 334 0170 0E94 0000 		call __gtsf2
 335 0174 1816      		cp __zero_reg__,r24
 336 0176 04F4      		brge .L27
 337               	.L23:
 173:/usr/local/lib/gcc/avr/4.3.4/../../../../avr/include/util/delay.h **** 		__ticks = (uint16_t) (__ms * 10.0);
 338               		.stabn	68,0,173,.LM18-.LFBB1
 339               	.LM18:
 340 0178 6B85      		ldd r22,Y+11
 341 017a 7C85      		ldd r23,Y+12
 342 017c 8D85      		ldd r24,Y+13
 343 017e 9E85      		ldd r25,Y+14
 344 0180 20E0      		ldi r18,lo8(0x41200000)
 345 0182 30E0      		ldi r19,hi8(0x41200000)
 346 0184 40E2      		ldi r20,hlo8(0x41200000)
 347 0186 51E4      		ldi r21,hhi8(0x41200000)
 348 0188 0E94 0000 		call __mulsf3
 349 018c DC01      		movw r26,r24
 350 018e CB01      		movw r24,r22
 351 0190 BC01      		movw r22,r24
 352 0192 CD01      		movw r24,r26
GAS LISTING /tmp//cc5ihGWi.s 			page 13


 353 0194 0E94 0000 		call __fixunssfsi
 354 0198 DC01      		movw r26,r24
 355 019a CB01      		movw r24,r22
 356 019c 9E83      		std Y+6,r25
 357 019e 8D83      		std Y+5,r24
 358 01a0 00C0      		rjmp .L15
 359               	.L16:
 360 01a2 89E1      		ldi r24,lo8(25)
 361 01a4 90E0      		ldi r25,hi8(25)
 362 01a6 9C83      		std Y+4,r25
 363 01a8 8B83      		std Y+3,r24
 364               	.LBB22:
 365               	.LBB23:
 366               		.stabs	"/usr/local/lib/gcc/avr/4.3.4/../../../../avr/include/util/delay_basic.h",132,0,0,.Ltext7
 367               	.Ltext7:
 368               		.stabn	68,0,105,.LM19-.LFBB1
 369               	.LM19:
 370 01aa 8B81      		ldd r24,Y+3
 371 01ac 9C81      		ldd r25,Y+4
 372               	/* #APP */
 373               	 ;  105 "/usr/local/lib/gcc/avr/4.3.4/../../../../avr/include/util/delay_basic.h" 1
 374 01ae 0197      		1: sbiw r24,1
 375 01b0 01F4      		brne 1b
 376               	 ;  0 "" 2
 377               	/* #NOAPP */
 378 01b2 9C83      		std Y+4,r25
 379 01b4 8B83      		std Y+3,r24
 380               	.LBE23:
 381               	.LBE22:
 382               		.stabs	"/usr/local/lib/gcc/avr/4.3.4/../../../../avr/include/util/delay.h",132,0,0,.Ltext8
 383               	.Ltext8:
 178:/usr/local/lib/gcc/avr/4.3.4/../../../../avr/include/util/delay.h **** 			__ticks --;
 384               		.stabn	68,0,178,.LM20-.LFBB1
 385               	.LM20:
 386 01b6 8D81      		ldd r24,Y+5
 387 01b8 9E81      		ldd r25,Y+6
 388 01ba 0197      		sbiw r24,1
 389 01bc 9E83      		std Y+6,r25
 390 01be 8D83      		std Y+5,r24
 391               	.L15:
 174:/usr/local/lib/gcc/avr/4.3.4/../../../../avr/include/util/delay.h **** 		while(__ticks)
 392               		.stabn	68,0,174,.LM21-.LFBB1
 393               	.LM21:
 394 01c0 8D81      		ldd r24,Y+5
 395 01c2 9E81      		ldd r25,Y+6
 396 01c4 0097      		sbiw r24,0
 397 01c6 01F4      		brne .L16
 398 01c8 00C0      		rjmp .L18
 399               	.L27:
 400               		.stabn	68,0,183,.LM22-.LFBB1
 401               	.LM22:
 402 01ca 6F81      		ldd r22,Y+7
 403 01cc 7885      		ldd r23,Y+8
 404 01ce 8985      		ldd r24,Y+9
 405 01d0 9A85      		ldd r25,Y+10
 406 01d2 0E94 0000 		call __fixunssfsi
 407 01d6 DC01      		movw r26,r24
GAS LISTING /tmp//cc5ihGWi.s 			page 14


 408 01d8 CB01      		movw r24,r22
 409 01da 9E83      		std Y+6,r25
 410 01dc 8D83      		std Y+5,r24
 411               	.L12:
 412 01de 8D81      		ldd r24,Y+5
 413 01e0 9E81      		ldd r25,Y+6
 414 01e2 9A83      		std Y+2,r25
 415 01e4 8983      		std Y+1,r24
 416               	.LBB24:
 417               	.LBB25:
 418               		.stabs	"/usr/local/lib/gcc/avr/4.3.4/../../../../avr/include/util/delay_basic.h",132,0,0,.Ltext9
 419               	.Ltext9:
 420               		.stabn	68,0,105,.LM23-.LFBB1
 421               	.LM23:
 422 01e6 8981      		ldd r24,Y+1
 423 01e8 9A81      		ldd r25,Y+2
 424               	/* #APP */
 425               	 ;  105 "/usr/local/lib/gcc/avr/4.3.4/../../../../avr/include/util/delay_basic.h" 1
 426 01ea 0197      		1: sbiw r24,1
 427 01ec 01F4      		brne 1b
 428               	 ;  0 "" 2
 429               	/* #NOAPP */
 430 01ee 9A83      		std Y+2,r25
 431 01f0 8983      		std Y+1,r24
 432 01f2 00C0      		rjmp .L18
 433               	.LBE25:
 434               	.LBE24:
 435               	.LBE21:
 436               	.LBE20:
 437               		.size	main, .-main
 438               	.Lscope1:
 439               		.stabs	"",36,0,0,.Lscope1-.LFBB1
 440               		.stabd	78,0,0
 441               		.stabs	"",100,0,0,.Letext0
 442               	.Letext0:
